; Function Attrs: mustprogress noinline uwtable
define dso_local void @_ZN4Luau7CodeGen3A6418AssemblyBuilderA643logEPKcNS1_11RegisterA64Eii(ptr noundef nonnull align 8 dereferenceable(176) %0, ptr noundef %1, i8 %2, i32 noundef %3, i32 noundef %4) local_unnamed_addr #7 align 2 personality ptr @__gxx_personality_v0 {
  tail call void (ptr, ptr, ...) @_ZN4Luau7CodeGen3A6418AssemblyBuilderA649logAppendEPKcz(ptr noundef nonnull align 8 dereferenceable(176) %0, ptr noundef nonnull @.str.80, ptr noundef %1)
  tail call void @_ZN4Luau7CodeGen3A6418AssemblyBuilderA643logENS1_11RegisterA64E(ptr noundef nonnull align 8 dereferenceable(176) %0, i8 %2)
  %6 = getelementptr inbounds nuw i8, ptr %0, i64 48
  %7 = getelementptr inbounds nuw i8, ptr %0, i64 56
  %8 = load i64, ptr %7, align 8, !tbaa !10
  %9 = icmp eq i64 %8, 4611686018427387903
  br i1 %9, label %10, label %_ZNSt7__cxx1112basic_stringIcSt11char_traitsIcESaIcEE6appendEPKc.exit

10:                                               ; preds = %5
  tail call void @_ZSt20__throw_length_errorPKc(ptr noundef nonnull @.str.121) #21
  unreachable

_ZNSt7__cxx1112basic_stringIcSt11char_traitsIcESaIcEE6appendEPKc.exit: ; preds = %5
  %11 = tail call noundef nonnull align 8 dereferenceable(32) ptr @_ZNSt7__cxx1112basic_stringIcSt11char_traitsIcESaIcEE9_M_appendEPKcm(ptr noundef nonnull align 8 dereferenceable(32) %6, ptr noundef nonnull @.str.81, i64 noundef 1)
  tail call void (ptr, ptr, ...) @_ZN4Luau7CodeGen3A6418AssemblyBuilderA649logAppendEPKcz(ptr noundef nonnull align 8 dereferenceable(176) %0, ptr noundef nonnull @.str.86, i32 noundef %3)
  %12 = icmp sgt i32 %4, 0
  br i1 %12, label %13, label %14

13:                                               ; preds = %_ZNSt7__cxx1112basic_stringIcSt11char_traitsIcESaIcEE6appendEPKc.exit
  tail call void (ptr, ptr, ...) @_ZN4Luau7CodeGen3A6418AssemblyBuilderA649logAppendEPKcz(ptr noundef nonnull align 8 dereferenceable(176) %0, ptr noundef nonnull @.str.83, i32 noundef %4)
  br label %14

14:                                               ; preds = %13, %_ZNSt7__cxx1112basic_stringIcSt11char_traitsIcESaIcEE6appendEPKc.exit
  %15 = load i64, ptr %7, align 8, !tbaa !10
  %16 = icmp eq i64 %15, 4611686018427387903
  br i1 %16, label %17, label %_ZNSt7__cxx1112basic_stringIcSt11char_traitsIcESaIcEE6appendEPKc.exit5

17:                                               ; preds = %14
  tail call void @_ZSt20__throw_length_errorPKc(ptr noundef nonnull @.str.121) #21
  unreachable

_ZNSt7__cxx1112basic_stringIcSt11char_traitsIcESaIcEE6appendEPKc.exit5: ; preds = %14
  %18 = tail call noundef nonnull align 8 dereferenceable(32) ptr @_ZNSt7__cxx1112basic_stringIcSt11char_traitsIcESaIcEE9_M_appendEPKcm(ptr noundef nonnull align 8 dereferenceable(32) %6, ptr noundef nonnull @.str.85, i64 noundef 1)
  ret void
}